target datalayout = "e-m:e-p270:32:32-p271:32:32-p272:64:64-i64:64-i128:128-f80:128-n8:16:32:64-S128"
target triple = "x86_64-pc-linux-gnu"

%struct._object = type { %union.anon, ptr }
%union.anon = type { i64 }

@_Py_NoneStruct = external global %struct._object, align 8

; Function Attrs: nounwind uwtable
define internal ptr @sys_set_coroutine_origin_tracking_depth_impl(ptr noundef %0, i32 noundef %1) #0 {
  %3 = alloca ptr, align 8
  %4 = alloca ptr, align 8
  %5 = alloca i32, align 4
  store ptr %0, ptr %4, align 8, !tbaa !9
  store i32 %1, ptr %5, align 4, !tbaa !97
  %6 = load i32, ptr %5, align 4, !tbaa !97
  %7 = call i32 @_PyEval_SetCoroutineOriginTrackingDepth(i32 noundef %6)
  %8 = icmp slt i32 %7, 0
  br i1 %8, label %9, label %10

9:                                                ; preds = %2
  store ptr null, ptr %3, align 8
  br label %11

10:                                               ; preds = %2
  store ptr @_Py_NoneStruct, ptr %3, align 8
  br label %11

11:                                               ; preds = %10, %9
  %12 = load ptr, ptr %3, align 8
  ret ptr %12
}

; Function Attrs: nounwind uwtable
define internal ptr @sys_set_coroutine_origin_tracking_depth(ptr noundef %0, ptr noundef %1, i64 noundef %2, ptr noundef %3) #0 {
  %5 = alloca ptr, align 8
  %6 = alloca ptr, align 8
  %7 = alloca i64, align 8
  %8 = alloca ptr, align 8
  %9 = alloca ptr, align 8
  %10 = alloca [1 x ptr], align 8
  %11 = alloca i32, align 4
  store ptr %0, ptr %5, align 8, !tbaa !9
  store ptr %1, ptr %6, align 8, !tbaa !103
  store i64 %2, ptr %7, align 8, !tbaa !204
  store ptr %3, ptr %8, align 8, !tbaa !9
  call void @llvm.lifetime.start.p0(i64 8, ptr %9) #12
  store ptr null, ptr %9, align 8, !tbaa !9
  call void @llvm.lifetime.start.p0(i64 8, ptr %10) #12
  call void @llvm.lifetime.start.p0(i64 4, ptr %11) #12
  %12 = load ptr, ptr %8, align 8, !tbaa !9
  %13 = icmp eq ptr %12, null
  br i1 %13, label %14, label %25

14:                                               ; preds = %4
  %15 = load i64, ptr %7, align 8, !tbaa !204
  %16 = icmp sle i64 1, %15
  br i1 %16, label %17, label %25

17:                                               ; preds = %14
  %18 = load i64, ptr %7, align 8, !tbaa !204
  %19 = icmp sle i64 %18, 1
  br i1 %19, label %20, label %25

20:                                               ; preds = %17
  %21 = load ptr, ptr %6, align 8, !tbaa !103
  %22 = icmp ne ptr %21, null
  br i1 %22, label %23, label %25

23:                                               ; preds = %20
  %24 = load ptr, ptr %6, align 8, !tbaa !103
  br label %31

25:                                               ; preds = %20, %17, %14, %4
  %26 = load ptr, ptr %6, align 8, !tbaa !103
  %27 = load i64, ptr %7, align 8, !tbaa !204
  %28 = load ptr, ptr %8, align 8, !tbaa !9
  %29 = getelementptr inbounds [1 x ptr], ptr %10, i64 0, i64 0
  %30 = call ptr @_PyArg_UnpackKeywords(ptr noundef %26, i64 noundef %27, ptr noundef null, ptr noundef %28, ptr noundef @sys_set_coroutine_origin_tracking_depth._parser, i32 noundef 1, i32 noundef 1, i32 noundef 0, i32 noundef 0, ptr noundef %29)
  br label %31

31:                                               ; preds = %25, %23
  %32 = phi ptr [ %24, %23 ], [ %30, %25 ]
  store ptr %32, ptr %6, align 8, !tbaa !103
  %33 = load ptr, ptr %6, align 8, !tbaa !103
  %34 = icmp ne ptr %33, null
  br i1 %34, label %36, label %35

35:                                               ; preds = %31
  br label %51

36:                                               ; preds = %31
  %37 = load ptr, ptr %6, align 8, !tbaa !103
  %38 = getelementptr ptr, ptr %37, i64 0
  %39 = load ptr, ptr %38, align 8, !tbaa !9
  %40 = call i32 @PyLong_AsInt(ptr noundef %39)
  store i32 %40, ptr %11, align 4, !tbaa !97
  %41 = load i32, ptr %11, align 4, !tbaa !97
  %42 = icmp eq i32 %41, -1
  br i1 %42, label %43, label %47

43:                                               ; preds = %36
  %44 = call ptr @PyErr_Occurred()
  %45 = icmp ne ptr %44, null
  br i1 %45, label %46, label %47

46:                                               ; preds = %43
  br label %51

47:                                               ; preds = %43, %36
  %48 = load ptr, ptr %5, align 8, !tbaa !9
  %49 = load i32, ptr %11, align 4, !tbaa !97
  %50 = call ptr @sys_set_coroutine_origin_tracking_depth_impl(ptr noundef %48, i32 noundef %49)
  store ptr %50, ptr %9, align 8, !tbaa !9
  br label %51

51:                                               ; preds = %47, %46, %35
  %52 = load ptr, ptr %9, align 8, !tbaa !9
  call void @llvm.lifetime.end.p0(i64 4, ptr %11) #12
  call void @llvm.lifetime.end.p0(i64 8, ptr %10) #12
  call void @llvm.lifetime.end.p0(i64 8, ptr %9) #12
  ret ptr %52
}