; Function Attrs: nounwind uwtable
define internal ptr @sys_set_coroutine_origin_tracking_depth(ptr readnone captures(none) %0, ptr noundef %1, i64 noundef %2, ptr noundef %3) #0 {
  %5 = alloca [1 x ptr], align 8
  call void @llvm.lifetime.start.p0(i64 8, ptr nonnull %5) #15
  %6 = icmp eq ptr %3, null
  %7 = icmp eq i64 %2, 1
  %or.cond3 = and i1 %7, %6
  %8 = icmp ne ptr %1, null
  %or.cond5 = and i1 %8, %or.cond3
  br i1 %or.cond5, label %.thread, label %9

9:                                                ; preds = %4
  %10 = call ptr @_PyArg_UnpackKeywords(ptr noundef %1, i64 noundef %2, ptr noundef null, ptr noundef %3, ptr noundef nonnull @sys_set_coroutine_origin_tracking_depth._parser, i32 noundef 1, i32 noundef 1, i32 noundef 0, i32 noundef 0, ptr noundef nonnull %5) #15
  %.not = icmp eq ptr %10, null
  br i1 %.not, label %19, label %.thread

.thread:                                          ; preds = %4, %9
  %11 = phi ptr [ %10, %9 ], [ %1, %4 ]
  %12 = load ptr, ptr %11, align 8, !tbaa !93
  %13 = call i32 @PyLong_AsInt(ptr noundef %12) #15
  %14 = icmp eq i32 %13, -1
  br i1 %14, label %15, label %.sink.split

15:                                               ; preds = %.thread
  %16 = call ptr @PyErr_Occurred() #15
  %.not22 = icmp eq ptr %16, null
  br i1 %.not22, label %.sink.split, label %19

.sink.split:                                      ; preds = %15, %.thread
  %.sink = phi i32 [ %13, %.thread ], [ -1, %15 ]
  %17 = call i32 @_PyEval_SetCoroutineOriginTrackingDepth(i32 noundef %.sink) #15
  %18 = icmp slt i32 %17, 0
  %._Py_NoneStruct.i = select i1 %18, ptr null, ptr @_Py_NoneStruct
  br label %19

19:                                               ; preds = %.sink.split, %15, %9
  %.0 = phi ptr [ null, %15 ], [ null, %9 ], [ %._Py_NoneStruct.i, %.sink.split ]
  call void @llvm.lifetime.end.p0(i64 8, ptr nonnull %5) #15
  ret ptr %.0
}